Certificate:
    Data:
        Version: 1 (0x0)
        Serial Number:
            45:18:56:67:8b:5e:3f:ec:76:ad:c4:30:b3:9e:a1:42:98:57:d3:35
        Signature Algorithm: sha256WithRSAEncryption
        Issuer: CN = ca.localhost
        Validity
            Not Before: Nov  9 14:59:22 2023 GMT
            Not After : Nov  6 14:59:22 2033 GMT
        Subject: CN = ca.localhost
        Subject Public Key Info:
            Public Key Algorithm: rsaEncryption
                Public-Key: (2048 bit)
                Modulus:
                    00:b2:63:0a:d0:27:83:48:2e:1f:86:7b:77:ed:2e:
                    35:14:d5:53:5a:8d:f4:12:fa:21:bc:30:e3:66:27:
                    8d:0e:d7:7b:82:6e:18:e5:d8:9a:29:32:11:cb:6b:
                    3a:a4:37:01:63:a0:8e:35:54:66:26:d4:a1:cc:da:
                    86:24:86:34:15:1c:0c:50:15:d9:0e:85:c7:38:48:
                    cb:56:89:1f:f2:08:7d:5a:41:ec:ad:06:ea:7e:cc:
                    eb:0c:80:13:3c:15:04:5a:b1:09:a6:69:d2:26:9c:
                    e8:84:a8:31:24:d1:01:9d:5e:8a:29:84:61:a5:92:
                    38:46:83:2e:b6:92:64:1e:e9:e1:27:66:78:bd:e7:
                    76:9d:3d:68:36:90:b2:61:52:25:b3:6b:c9:12:bb:
                    56:38:62:f5:35:f1:6b:5a:47:86:92:fe:5d:3f:b2:
                    a2:73:c2:c3:ba:bf:bd:fa:ea:f2:66:d4:09:a9:f8:
                    e8:dc:bb:3e:4e:ad:38:ad:0e:ee:84:d1:3d:9d:2c:
                    47:3c:31:d7:64:29:9e:34:23:f5:5a:bf:6e:28:07:
                    31:14:bd:57:8a:a6:b3:31:36:8c:7f:dc:17:5d:3c:
                    a9:08:c6:f1:e4:9e:c9:9a:7c:b5:30:ae:a2:21:a3:
                    46:d3:21:06:b2:bd:ed:d0:1e:47:d0:af:ff:f9:0b:
                    46:a1
                Exponent: 65537 (0x10001)
    Signature Algorithm: sha256WithRSAEncryption
    Signature Value:
        37:3a:b1:1e:2b:e2:59:5c:c0:b2:61:25:a5:b4:46:90:9d:19:
        f6:28:b1:d0:c0:a9:e0:49:b2:c4:90:a7:29:a4:bc:cf:94:3f:
        4b:fb:27:c3:5a:d4:e9:53:3a:94:02:89:82:61:b3:22:07:43:
        e0:28:38:c7:61:50:3d:8f:39:00:8b:28:1e:af:6b:97:b1:45:
        bb:21:66:71:89:74:13:0f:f1:74:1f:2e:c2:bf:ad:d8:d1:ea:
        08:d0:51:b6:55:4e:c8:1d:7d:d9:83:75:d1:a6:f0:46:47:89:
        7f:ae:ed:8b:0d:13:93:33:16:a4:be:25:12:8e:44:24:c1:a0:
        d1:91:42:fa:97:84:a5:75:3d:e1:95:5f:52:91:f5:d8:74:cb:
        fa:7a:5c:89:6d:50:d0:64:66:a9:a9:13:41:69:54:4c:36:f4:
        af:20:0a:27:b0:5f:9f:e1:01:79:b6:e3:5a:a3:6e:32:07:7a:
        fa:4a:81:b3:ce:f7:39:e3:e5:7f:8a:0f:5c:45:73:d0:b3:3e:
        92:8c:b6:6f:3f:f9:ef:d8:8f:f6:72:13:28:76:0e:af:a8:c4:
        81:4a:7f:0d:b5:44:59:0f:ba:63:95:f6:94:3b:30:a8:36:72:
        37:38:4b:f3:5b:0f:41:63:0e:1a:ee:a0:f6:4f:c5:d3:9c:3d:
        f7:eb:63:bf
-----BEGIN CERTIFICATE-----
MIICtTCCAZ0CFEUYVmeLXj/sdq3EMLOeoUKYV9M1MA0GCSqGSIb3DQEBCwUAMBcx
FTATBgNVBAMMDGNhLmxvY2FsaG9zdDAeFw0yMzExMDkxNDU5MjJaFw0zMzExMDYx
NDU5MjJaMBcxFTATBgNVBAMMDGNhLmxvY2FsaG9zdDCCASIwDQYJKoZIhvcNAQEB
BQADggEPADCCAQoCggEBALJjCtAng0guH4Z7d+0uNRTVU1qN9BL6Ibww42YnjQ7X
e4JuGOXYmikyEctrOqQ3AWOgjjVUZibUoczahiSGNBUcDFAV2Q6FxzhIy1aJH/II
fVpB7K0G6n7M6wyAEzwVBFqxCaZp0iac6ISoMSTRAZ1eiimEYaWSOEaDLraSZB7p
4SdmeL3ndp09aDaQsmFSJbNryRK7Vjhi9TXxa1pHhpL+XT+yonPCw7q/vfrq8mbU
Can46Ny7Pk6tOK0O7oTRPZ0sRzwx12QpnjQj9Vq/bigHMRS9V4qmszE2jH/cF108
qQjG8eSeyZp8tTCuoiGjRtMhBrK97dAeR9Cv//kLRqECAwEAATANBgkqhkiG9w0B
AQsFAAOCAQEANzqxHiviWVzAsmElpbRGkJ0Z9iix0MCp4EmyxJCnKaS8z5Q/S/sn
w1rU6VM6lAKJgmGzIgdD4Cg4x2FQPY85AIsoHq9rl7FFuyFmcYl0Ew/xdB8uwr+t
2NHqCNBRtlVOyB192YN10abwRkeJf67tiw0TkzMWpL4lEo5EJMGg0ZFC+peEpXU9
4ZVfUpH12HTL+npciW1Q0GRmqakTQWlUTDb0ryAKJ7Bfn+EBebbjWqNuMgd6+kqB
s873OePlf4oPXEVz0LM+koy2bz/579iP9nITKHYOr6jEgUp/DbVEWQ+6Y5X2lDsw
qDZyNzhL81sPQWMOGu6g9k/F05w99+tjvw==
-----END CERTIFICATE-----
