Certificate Request:
    Data:
        Version: 1 (0x0)
        Subject: CN = ca
        Subject Public Key Info:
            Public Key Algorithm: rsaEncryption
                Public-Key: (2048 bit)
                Modulus:
                    00:bc:95:f1:cd:83:ff:de:d4:be:f0:ab:9d:6c:b7:
                    9c:ea:fc:10:1e:34:8d:74:bc:7e:3d:ff:78:5c:ca:
                    f3:ad:58:af:12:f2:4d:8d:7c:af:b6:41:c5:f1:7b:
                    e1:4a:48:af:99:2c:ae:f1:3b:ba:e4:75:a6:87:8d:
                    2a:75:69:51:b9:18:03:33:07:a6:32:c0:7b:13:09:
                    50:4a:9e:d2:09:26:90:74:33:70:cb:40:ce:2d:15:
                    e9:41:3f:05:5a:af:1d:9e:ee:eb:ef:ed:30:82:c2:
                    33:e5:81:ab:b2:2d:9e:20:f0:2c:b0:fd:56:0a:da:
                    86:75:ba:fb:59:9f:55:56:07:71:ad:fe:34:a4:85:
                    8d:1c:1f:22:42:f7:6d:21:e5:80:b9:8d:8e:b7:b2:
                    7d:94:2a:eb:cb:43:d4:04:01:f8:cc:a6:b3:55:d7:
                    34:26:f9:6d:cb:5b:f3:9b:2f:67:91:04:db:5e:c9:
                    e4:c6:bc:cd:a3:34:6c:10:d4:46:68:d0:d4:17:13:
                    4c:e0:44:8a:ff:87:3d:d9:42:75:4d:28:9e:c7:ba:
                    27:be:e8:45:a0:2d:b7:ae:9c:f0:a7:a7:02:3a:1e:
                    8a:8b:fb:5f:2e:c9:5a:ae:9f:d3:0c:37:0e:e2:fb:
                    9b:9a:d9:10:a3:3c:f8:24:43:36:8a:1e:1b:b4:af:
                    60:4d
                Exponent: 65537 (0x10001)
        Attributes:
            (none)
            Requested Extensions:
    Signature Algorithm: sha256WithRSAEncryption
    Signature Value:
        64:5e:cc:2b:aa:9c:a7:d2:aa:96:d2:4a:df:c6:2e:28:81:6f:
        48:38:50:0b:5c:4b:fc:39:be:4f:38:92:cd:6f:bf:c6:a9:6c:
        f5:3c:4b:2a:fe:a1:45:c6:e6:3d:60:58:7d:19:1e:0b:80:d9:
        de:e7:c0:bd:14:b2:99:bc:31:7c:cc:6c:0c:2e:87:43:af:15:
        9d:ce:8b:74:1a:e2:80:17:d5:7e:2b:b1:eb:ba:b4:87:58:61:
        ca:93:46:8b:86:38:2e:8f:a5:f0:35:98:99:61:66:e6:b7:ee:
        03:bc:29:24:7a:c1:eb:a0:bc:c5:26:82:83:9f:3d:40:32:d4:
        cc:19:a8:f5:cc:b1:f7:eb:cd:d7:7a:a8:88:b2:74:32:b8:70:
        86:7b:e3:7c:7a:c8:55:32:fe:81:99:2d:3f:fd:e4:73:99:b1:
        5c:fa:2d:07:1f:c9:67:07:ec:0e:2d:57:51:75:e7:7f:4c:05:
        1c:f2:49:e6:ca:3b:92:b2:8a:f7:a3:8f:02:75:73:67:88:7c:
        28:38:c9:8a:24:6e:ab:17:85:3c:4c:ed:8d:bd:31:9f:47:8d:
        e4:69:5c:62:0e:69:a9:d5:94:34:92:38:79:b4:e4:3d:d9:66:
        3e:4a:5a:7a:76:ba:00:bf:4b:32:9f:7d:d6:5f:53:26:6b:db:
        c7:cb:13:eb
-----BEGIN CERTIFICATE REQUEST-----
MIICUjCCAToCAQAwDTELMAkGA1UEAwwCY2EwggEiMA0GCSqGSIb3DQEBAQUAA4IB
DwAwggEKAoIBAQC8lfHNg//e1L7wq51st5zq/BAeNI10vH49/3hcyvOtWK8S8k2N
fK+2QcXxe+FKSK+ZLK7xO7rkdaaHjSp1aVG5GAMzB6YywHsTCVBKntIJJpB0M3DL
QM4tFelBPwVarx2e7uvv7TCCwjPlgauyLZ4g8Cyw/VYK2oZ1uvtZn1VWB3Gt/jSk
hY0cHyJC920h5YC5jY63sn2UKuvLQ9QEAfjMprNV1zQm+W3LW/ObL2eRBNteyeTG
vM2jNGwQ1EZo0NQXE0zgRIr/hz3ZQnVNKJ7Huie+6EWgLbeunPCnpwI6HoqL+18u
yVqun9MMNw7i+5ua2RCjPPgkQzaKHhu0r2BNAgMBAAGgADANBgkqhkiG9w0BAQsF
AAOCAQEAZF7MK6qcp9KqltJK38YuKIFvSDhQC1xL/Dm+TziSzW+/xqls9TxLKv6h
RcbmPWBYfRkeC4DZ3ufAvRSymbwxfMxsDC6HQ68Vnc6LdBrigBfVfiux67q0h1hh
ypNGi4Y4Lo+l8DWYmWFm5rfuA7wpJHrB66C8xSaCg589QDLUzBmo9cyx9+vN13qo
iLJ0MrhwhnvjfHrIVTL+gZktP/3kc5mxXPotBx/JZwfsDi1XUXXnf0wFHPJJ5so7
krKK96OPAnVzZ4h8KDjJiiRuqxeFPEztjb0xn0eN5GlcYg5pqdWUNJI4ebTkPdlm
Pkpaena6AL9LMp991l9TJmvbx8sT6w==
-----END CERTIFICATE REQUEST-----
