Certificate:
    Data:
        Version: 1 (0x0)
        Serial Number:
            28:21:f5:11:20:80:d1:ab:1d:e7:70:dc:b5:d0:50:fb:c9:4e:7b:cd
        Signature Algorithm: sha256WithRSAEncryption
        Issuer: CN = ca.localhost
        Validity
            Not Before: Nov  9 14:59:22 2023 GMT
            Not After : Nov  8 14:59:22 2024 GMT
        Subject: CN = localhost
        Subject Public Key Info:
            Public Key Algorithm: rsaEncryption
                Public-Key: (2048 bit)
                Modulus:
                    00:db:9a:0b:a4:16:06:68:95:88:d2:11:62:29:ba:
                    a0:b1:51:71:08:69:cc:1c:b5:93:b2:1d:66:5b:62:
                    2c:8b:8a:4b:34:b5:8d:d6:74:98:af:23:ee:fe:29:
                    09:7b:ff:34:1e:dd:71:36:eb:ac:6f:15:88:7f:ab:
                    bc:09:8f:f0:a8:e5:d6:db:74:f6:a2:09:0a:7d:79:
                    98:59:d0:80:8f:cd:81:26:4f:35:35:ee:76:73:3d:
                    cd:cb:af:f4:1a:37:53:2d:35:5b:76:b3:f1:81:16:
                    22:f1:40:e2:c8:2c:5a:77:cc:c9:91:85:f6:cb:a1:
                    0d:4b:c3:44:c0:59:0a:51:39:95:8c:9c:ed:d5:82:
                    c0:44:4f:ab:3e:8f:ff:44:6e:17:b2:e4:cb:72:f1:
                    38:e4:4e:8d:85:ca:f2:fe:65:d4:f1:91:1c:64:1b:
                    a5:a7:0d:2e:f0:ad:56:31:8c:cd:28:88:e8:93:c0:
                    7f:45:5b:aa:c3:e6:59:8b:33:28:e9:00:f7:8a:3d:
                    10:b5:05:d2:10:3b:b2:e8:96:f6:95:b7:d1:53:f4:
                    08:a1:a8:94:f4:b0:08:b0:c2:dc:ab:1d:40:5d:23:
                    06:cf:a7:6d:e2:dd:b5:ff:a1:7b:81:34:db:c8:c5:
                    01:c3:95:d4:97:0d:96:79:0f:2e:db:cf:f0:cd:8f:
                    be:b9
                Exponent: 65537 (0x10001)
    Signature Algorithm: sha256WithRSAEncryption
    Signature Value:
        14:ba:9b:f4:53:ca:6c:2d:b5:fe:bc:de:8b:39:fb:c1:eb:75:
        79:e0:52:c3:b9:e8:eb:75:fb:83:b5:d9:52:03:28:a3:8a:1c:
        a7:8b:ea:3e:37:c0:12:03:6c:dd:1a:77:2f:2c:34:00:0e:04:
        17:79:49:44:0b:30:39:d4:bb:76:0e:40:60:42:23:99:da:b6:
        2e:dd:f6:d4:9d:7e:24:ea:8b:a6:4a:42:b9:47:37:4b:92:4b:
        b0:0f:0d:ac:2e:60:fd:ba:01:e2:fe:ec:f8:28:4e:49:f8:a4:
        96:8e:a9:64:75:4e:68:28:3e:43:5e:44:61:0e:b1:66:6d:fb:
        0f:2b:f5:89:b7:5a:b6:cd:97:22:24:4a:e2:8a:34:91:33:2a:
        cb:24:2f:2b:7a:a5:54:90:2e:15:ab:81:77:4d:48:6c:d3:76:
        b8:37:ed:b2:f6:cf:04:4d:c6:6d:69:be:06:31:0f:da:07:92:
        cd:5e:ea:1e:31:a9:ae:e3:99:31:b5:00:1a:20:dd:4d:37:8b:
        64:91:3a:bf:ff:63:77:06:c5:20:71:d1:60:59:4c:27:3e:b5:
        60:12:5d:55:9d:1e:71:e0:e5:8c:05:fd:9d:5b:69:65:99:d3:
        63:01:66:b4:f0:e7:c8:93:c6:ce:98:02:0a:34:9a:15:fe:86:
        e0:bf:a0:8d
-----BEGIN CERTIFICATE-----
MIICsjCCAZoCFCgh9REggNGrHedw3LXQUPvJTnvNMA0GCSqGSIb3DQEBCwUAMBcx
FTATBgNVBAMMDGNhLmxvY2FsaG9zdDAeFw0yMzExMDkxNDU5MjJaFw0yNDExMDgx
NDU5MjJaMBQxEjAQBgNVBAMMCWxvY2FsaG9zdDCCASIwDQYJKoZIhvcNAQEBBQAD
ggEPADCCAQoCggEBANuaC6QWBmiViNIRYim6oLFRcQhpzBy1k7IdZltiLIuKSzS1
jdZ0mK8j7v4pCXv/NB7dcTbrrG8ViH+rvAmP8Kjl1tt09qIJCn15mFnQgI/NgSZP
NTXudnM9zcuv9Bo3Uy01W3az8YEWIvFA4sgsWnfMyZGF9suhDUvDRMBZClE5lYyc
7dWCwERPqz6P/0RuF7Lky3LxOOROjYXK8v5l1PGRHGQbpacNLvCtVjGMzSiI6JPA
f0VbqsPmWYszKOkA94o9ELUF0hA7suiW9pW30VP0CKGolPSwCLDC3KsdQF0jBs+n
beLdtf+he4E028jFAcOV1JcNlnkPLtvP8M2PvrkCAwEAATANBgkqhkiG9w0BAQsF
AAOCAQEAFLqb9FPKbC21/rzeizn7wet1eeBSw7no63X7g7XZUgMoo4ocp4vqPjfA
EgNs3Rp3Lyw0AA4EF3lJRAswOdS7dg5AYEIjmdq2Lt321J1+JOqLpkpCuUc3S5JL
sA8NrC5g/boB4v7s+ChOSfiklo6pZHVOaCg+Q15EYQ6xZm37Dyv1ibdats2XIiRK
4oo0kTMqyyQvK3qlVJAuFauBd01IbNN2uDftsvbPBE3GbWm+BjEP2geSzV7qHjGp
ruOZMbUAGiDdTTeLZJE6v/9jdwbFIHHRYFlMJz61YBJdVZ0eceDljAX9nVtpZZnT
YwFmtPDnyJPGzpgCCjSaFf6G4L+gjQ==
-----END CERTIFICATE-----
