Certificate Request:
    Data:
        Version: 1 (0x0)
        Subject: CN = client
        Subject Public Key Info:
            Public Key Algorithm: rsaEncryption
                Public-Key: (2048 bit)
                Modulus:
                    00:f5:38:5e:55:b9:2f:9d:91:10:e5:10:ca:20:1a:
                    93:6b:75:b0:33:97:7b:85:d5:eb:b7:57:18:10:e4:
                    f6:05:4a:bf:4d:a5:86:23:6a:5f:55:73:47:6f:0e:
                    05:93:03:ea:b1:12:b6:04:1d:67:05:09:c0:90:88:
                    3f:c7:b2:37:47:2d:41:26:78:bf:4f:97:c3:68:63:
                    dd:c8:e4:01:19:e2:33:10:75:6b:e5:a2:0b:29:0d:
                    c9:93:c7:73:b3:f9:44:2b:0e:ac:b7:01:b8:33:63:
                    4f:b8:10:11:4d:80:85:60:36:04:32:fc:14:53:8f:
                    b7:4d:b9:e1:27:23:42:d5:c6:3b:7c:2f:06:7f:9b:
                    8f:6d:0e:c6:76:8e:90:13:39:aa:db:c3:f6:94:58:
                    cd:aa:71:30:91:1c:62:a3:ec:e7:b1:ef:c1:49:ab:
                    e7:18:c4:c8:32:b9:f1:1b:7c:81:16:e6:26:46:71:
                    d9:22:54:5c:ed:fa:27:c6:1f:97:d8:4f:49:8e:df:
                    45:46:da:7a:75:86:52:e8:49:23:9a:a8:71:6c:66:
                    3a:b7:54:98:92:60:f5:81:71:46:68:3a:4e:7a:88:
                    5d:9a:7e:d8:94:01:c1:79:d8:55:db:33:8b:ca:f9:
                    32:33:b6:90:b0:df:4c:51:94:a6:e6:f5:b6:26:0f:
                    eb:0d
                Exponent: 65537 (0x10001)
        Attributes:
            (none)
            Requested Extensions:
    Signature Algorithm: sha256WithRSAEncryption
    Signature Value:
        05:d2:c8:3c:d1:41:bc:59:91:af:64:d7:38:e3:ed:f4:3e:ae:
        6a:d3:78:a3:38:1b:50:46:5a:22:40:b0:ea:16:64:11:da:3c:
        e0:e5:51:79:fc:08:d7:18:ed:1b:df:d1:58:58:49:36:c4:5c:
        91:bf:94:0a:79:89:f1:45:f7:7a:21:7b:cc:de:d5:2d:90:fe:
        b1:66:aa:25:db:21:f4:d8:7b:ff:56:e2:8c:7c:ba:64:79:7a:
        6c:0d:04:02:10:df:9d:6c:f7:4a:b1:92:c4:22:39:af:2d:83:
        31:97:81:b9:eb:de:9f:f1:86:c2:5c:5d:a2:cf:ce:6b:d1:7e:
        6c:f6:8e:a0:8f:03:80:34:6c:cc:81:a0:a6:ba:7f:25:d0:55:
        74:c7:86:e4:21:96:70:30:ba:2a:1a:8e:ed:92:46:35:50:08:
        b1:42:f9:ad:6f:5c:05:6e:38:be:6c:68:82:3c:cf:bc:1a:2d:
        30:5d:f9:b2:56:83:e3:6b:f7:b5:38:df:99:6f:fd:05:df:bf:
        1f:bf:80:99:bc:1b:d8:19:83:94:5a:9b:eb:5c:31:a0:94:c5:
        2b:f3:0f:b5:84:04:e2:43:97:f7:e0:95:1e:7f:18:bd:c4:a8:
        43:a0:ae:fa:ee:0b:6f:0b:2b:77:8b:05:54:57:6b:4d:fc:53:
        30:95:38:f8
-----BEGIN CERTIFICATE REQUEST-----
MIICVjCCAT4CAQAwETEPMA0GA1UEAwwGY2xpZW50MIIBIjANBgkqhkiG9w0BAQEF
AAOCAQ8AMIIBCgKCAQEA9TheVbkvnZEQ5RDKIBqTa3WwM5d7hdXrt1cYEOT2BUq/
TaWGI2pfVXNHbw4FkwPqsRK2BB1nBQnAkIg/x7I3Ry1BJni/T5fDaGPdyOQBGeIz
EHVr5aILKQ3Jk8dzs/lEKw6stwG4M2NPuBARTYCFYDYEMvwUU4+3TbnhJyNC1cY7
fC8Gf5uPbQ7Gdo6QEzmq28P2lFjNqnEwkRxio+znse/BSavnGMTIMrnxG3yBFuYm
RnHZIlRc7fonxh+X2E9Jjt9FRtp6dYZS6EkjmqhxbGY6t1SYkmD1gXFGaDpOeohd
mn7YlAHBedhV2zOLyvkyM7aQsN9MUZSm5vW2Jg/rDQIDAQABoAAwDQYJKoZIhvcN
AQELBQADggEBAAXSyDzRQbxZka9k1zjj7fQ+rmrTeKM4G1BGWiJAsOoWZBHaPODl
UXn8CNcY7Rvf0VhYSTbEXJG/lAp5ifFF93ohe8ze1S2Q/rFmqiXbIfTYe/9W4ox8
umR5emwNBAIQ351s90qxksQiOa8tgzGXgbnr3p/xhsJcXaLPzmvRfmz2jqCPA4A0
bMyBoKa6fyXQVXTHhuQhlnAwuioaju2SRjVQCLFC+a1vXAVuOL5saII8z7waLTBd
+bJWg+Nr97U435lv/QXfvx+/gJm8G9gZg5Ram+tcMaCUxSvzD7WEBOJDl/fglR5/
GL3EqEOgrvruC28LK3eLBVRXa038UzCVOPg=
-----END CERTIFICATE REQUEST-----
