Certificate:
    Data:
        Version: 1 (0x0)
        Serial Number:
            28:21:f5:11:20:80:d1:ab:1d:e7:70:dc:b5:d0:50:fb:c9:4e:7b:d2
        Signature Algorithm: sha256WithRSAEncryption
        Issuer: CN = ca
        Validity
            Not Before: Nov 10 13:02:50 2023 GMT
            Not After : Nov  9 13:02:50 2024 GMT
        Subject: CN = n8nuser
        Subject Public Key Info:
            Public Key Algorithm: rsaEncryption
                Public-Key: (2048 bit)
                Modulus:
                    00:85:dd:54:71:6b:37:82:18:30:94:e4:55:8e:25:
                    a5:25:9c:4b:94:cb:df:f6:4c:42:9d:97:bf:80:17:
                    09:57:52:34:36:8a:d5:e7:0d:f0:6b:e8:bd:8b:28:
                    da:04:5a:ea:93:fb:bd:7b:02:d1:e3:9e:c0:d3:48:
                    4e:32:f7:c1:0c:fe:27:51:db:7c:5f:53:05:51:ed:
                    b1:f1:9f:f5:e0:0c:36:05:a6:a7:d8:d4:a9:34:6a:
                    90:26:29:65:bc:fd:99:5a:6b:bb:8b:47:5c:ab:b8:
                    fc:9c:2a:91:f6:c1:f0:30:d2:19:a4:e2:c8:04:be:
                    3c:76:4c:be:56:58:dc:73:a3:5b:15:0a:67:c3:b1:
                    9e:07:ef:3f:03:1d:ac:29:f7:5a:b4:e7:ec:48:a1:
                    fe:8e:0d:2e:68:30:2b:ff:57:f7:85:1f:2d:eb:4c:
                    cf:b6:ac:91:8e:53:49:5b:11:60:5e:6b:21:e8:34:
                    fa:d8:f6:6e:6f:f1:84:2c:45:6c:06:ee:95:e7:05:
                    ad:1b:c6:93:46:04:52:1c:35:dd:b2:6a:ee:83:77:
                    41:c8:a7:e5:d5:f9:51:8d:09:98:d5:56:52:97:80:
                    6f:b4:8c:69:c5:8f:b2:73:cc:c4:41:5a:96:17:58:
                    65:d3:54:10:f0:ea:42:be:b1:aa:b3:ae:80:34:d8:
                    f7:2b
                Exponent: 65537 (0x10001)
    Signature Algorithm: sha256WithRSAEncryption
    Signature Value:
        39:ff:12:23:a8:f6:cb:5f:f6:61:97:5f:19:82:e4:5a:c5:ea:
        c1:80:57:32:0f:e5:0d:54:0b:3b:12:91:af:3b:80:92:2d:eb:
        7d:6b:2a:a3:db:89:32:fd:c2:d5:3a:66:32:65:e6:d7:1a:ba:
        64:0f:d7:f4:e7:75:27:b0:ea:e0:ec:9a:67:cd:71:bb:9f:2c:
        8d:13:3a:27:b8:81:4a:19:ab:2b:86:f9:b6:8c:b3:aa:c2:47:
        04:09:4b:8b:c0:1b:47:fa:47:22:13:6c:08:6d:1b:e0:c1:07:
        a6:96:34:84:7a:b1:1b:d7:64:55:1c:b1:f4:ca:c5:b3:5b:81:
        fa:e0:b4:8c:8f:2e:06:18:a8:e7:77:09:e0:ea:b2:91:fd:11:
        cf:4b:7e:c7:de:70:0a:f5:09:1b:2e:c7:59:0a:ee:a0:39:12:
        be:7c:4a:08:25:57:d4:52:d5:05:17:ec:f8:02:ef:fb:7b:c6:
        80:94:8c:dc:37:43:5e:2f:5f:b5:26:5c:b9:dd:75:2c:b6:39:
        20:d5:23:f7:24:99:c0:5b:1a:68:24:11:af:0a:5b:e1:ba:b7:
        9b:b5:a9:83:a0:1d:37:11:9d:4b:2c:28:3a:cc:24:97:18:bf:
        1e:2d:7e:40:bf:0c:6f:f7:dc:7e:cb:1c:9c:8a:c3:3b:16:ec:
        55:a9:c5:8b
-----BEGIN CERTIFICATE-----
MIICpjCCAY4CFCgh9REggNGrHedw3LXQUPvJTnvSMA0GCSqGSIb3DQEBCwUAMA0x
CzAJBgNVBAMMAmNhMB4XDTIzMTExMDEzMDI1MFoXDTI0MTEwOTEzMDI1MFowEjEQ
MA4GA1UEAwwHbjhudXNlcjCCASIwDQYJKoZIhvcNAQEBBQADggEPADCCAQoCggEB
AIXdVHFrN4IYMJTkVY4lpSWcS5TL3/ZMQp2Xv4AXCVdSNDaK1ecN8GvovYso2gRa
6pP7vXsC0eOewNNITjL3wQz+J1HbfF9TBVHtsfGf9eAMNgWmp9jUqTRqkCYpZbz9
mVpru4tHXKu4/JwqkfbB8DDSGaTiyAS+PHZMvlZY3HOjWxUKZ8OxngfvPwMdrCn3
WrTn7Eih/o4NLmgwK/9X94UfLetMz7askY5TSVsRYF5rIeg0+tj2bm/xhCxFbAbu
lecFrRvGk0YEUhw13bJq7oN3Qcin5dX5UY0JmNVWUpeAb7SMacWPsnPMxEFalhdY
ZdNUEPDqQr6xqrOugDTY9ysCAwEAATANBgkqhkiG9w0BAQsFAAOCAQEAOf8SI6j2
y1/2YZdfGYLkWsXqwYBXMg/lDVQLOxKRrzuAki3rfWsqo9uJMv3C1TpmMmXm1xq6
ZA/X9Od1J7Dq4OyaZ81xu58sjRM6J7iBShmrK4b5toyzqsJHBAlLi8AbR/pHIhNs
CG0b4MEHppY0hHqxG9dkVRyx9MrFs1uB+uC0jI8uBhio53cJ4Oqykf0Rz0t+x95w
CvUJGy7HWQruoDkSvnxKCCVX1FLVBRfs+ALv+3vGgJSM3DdDXi9ftSZcud11LLY5
INUj9ySZwFsaaCQRrwpb4bq3m7Wpg6AdNxGdSywoOswklxi/Hi1+QL8Mb/fcfssc
nIrDOxbsVanFiw==
-----END CERTIFICATE-----
